target datalayout = "e-m:e-p270:32:32-p271:32:32-p272:64:64-i64:64-i128:128-f80:128-n8:16:32:64-S128"
target triple = "x86_64-pc-linux-gnu"

%struct.H5C_cache_entry_t = type { ptr, i64, i64, ptr, i8, ptr, i8, i8, i8, i8, i32, i8, i8, i8, i8, i8, i32, ptr, i32, i32, i32, i32, i32, i8, i8, ptr, ptr, ptr, ptr, ptr, ptr, i8, i32, i8, i64, ptr, i64, i64, i32, i8, i32, i32, i8, ptr, ptr, ptr }
%struct.H5HF_hdr_t = type { %struct.H5C_cache_entry_t, i32, i32, i8, i8, i8, i8, %struct.H5HF_dtable_t, i64, i64, i32, i64, i64, %struct.H5O_pline_t, i64, i32, i64, i64, i64, i64, i64, i64, i64, i64, i64, i64, i64, i32, ptr, i64, i8, i8, i8, ptr, i32, ptr, %struct.H5HF_block_iter_t, ptr, i64, i8, i8, i64, i8, i8, i8, i8 }
%struct.H5HF_dtable_t = type { %struct.H5HF_dtable_cparam_t, i64, i32, i32, i32, i32, i32, i32, i32, i64, ptr, ptr, ptr, ptr }
%struct.H5HF_dtable_cparam_t = type { i32, i64, i64, i32, i32 }
%struct.H5O_pline_t = type { %struct.H5O_shared_t, i32, i64, i64, ptr }
%struct.H5O_shared_t = type { i32, ptr, i32, %union.anon }
%union.anon = type { %struct.H5O_mesg_loc_t }
%struct.H5O_mesg_loc_t = type { i32, i64 }
%struct.H5HF_block_iter_t = type { i8, ptr }

@H5HF_init_g = external global i8, align 1
@H5_libterm_g = external global i8, align 1
@.str.4 = private unnamed_addr constant [104 x i8] c"generated/home/dtcxzyw/WorkSpace/Projects/compilers/llvm-opt-benchmark/bench/hdf5/hdf5/src/H5HFiblock.c\00", align 1
@H5E_HEAP_g = external global i64, align 8
@__func__.H5HF__man_iblock_parent_info = private unnamed_addr constant [29 x i8] c"H5HF__man_iblock_parent_info\00", align 1
@H5E_CANTCOMPUTE_g = external global i64, align 8
@.str.48 = private unnamed_addr constant [36 x i8] c"can't compute row & column of block\00", align 1

; Function Attrs: nounwind uwtable
define i32 @H5HF__man_iblock_parent_info(ptr noundef %0, i64 noundef %1, ptr noundef %2, ptr noundef %3) #0 {
  %5 = alloca ptr, align 8
  %6 = alloca i64, align 8
  %7 = alloca ptr, align 8
  %8 = alloca ptr, align 8
  %9 = alloca i64, align 8
  %10 = alloca i64, align 8
  %11 = alloca i32, align 4
  %12 = alloca i32, align 4
  %13 = alloca i32, align 4
  %14 = alloca i32, align 4
  %15 = alloca i32, align 4
  %16 = alloca i8, align 1
  store ptr %0, ptr %5, align 8, !tbaa !52
  store i64 %1, ptr %6, align 8, !tbaa !28
  store ptr %2, ptr %7, align 8, !tbaa !76
  store ptr %3, ptr %8, align 8, !tbaa !121
  call void @llvm.lifetime.start.p0(i64 8, ptr %9) #7
  call void @llvm.lifetime.start.p0(i64 8, ptr %10) #7
  call void @llvm.lifetime.start.p0(i64 4, ptr %11) #7
  call void @llvm.lifetime.start.p0(i64 4, ptr %12) #7
  call void @llvm.lifetime.start.p0(i64 4, ptr %13) #7
  store i32 0, ptr %13, align 4, !tbaa !8
  call void @llvm.lifetime.start.p0(i64 4, ptr %14) #7
  store i32 0, ptr %14, align 4, !tbaa !8
  call void @llvm.lifetime.start.p0(i64 4, ptr %15) #7
  store i32 0, ptr %15, align 4, !tbaa !8
  call void @llvm.lifetime.start.p0(i64 1, ptr %16) #7
  store i8 0, ptr %16, align 1, !tbaa !10
  %17 = load i8, ptr @H5HF_init_g, align 1, !tbaa !10, !range !12, !noundef !13
  %18 = trunc i8 %17 to i1
  br i1 %18, label %23, label %19

19:                                               ; preds = %4
  %20 = load i8, ptr @H5_libterm_g, align 1, !tbaa !10, !range !12, !noundef !13
  %21 = trunc i8 %20 to i1
  %22 = xor i1 %21, true
  br label %23

23:                                               ; preds = %19, %4
  %24 = phi i1 [ true, %4 ], [ %22, %19 ]
  %25 = xor i1 %24, true
  %26 = xor i1 %25, true
  %27 = zext i1 %26 to i32
  %28 = sext i32 %27 to i64
  %29 = call i64 @llvm.expect.i64(i64 %28, i64 1)
  %30 = icmp ne i64 %29, 0
  br i1 %30, label %31, label %132

31:                                               ; preds = %23
  %32 = load ptr, ptr %5, align 8, !tbaa !52
  %33 = getelementptr inbounds nuw %struct.H5HF_hdr_t, ptr %32, i32 0, i32 7
  %34 = load i64, ptr %6, align 8, !tbaa !28
  %35 = call i32 @H5HF__dtable_lookup(ptr noundef %33, i64 noundef %34, ptr noundef %11, ptr noundef %12)
  %36 = icmp slt i32 %35, 0
  br i1 %36, label %37, label %56

37:                                               ; preds = %31
  br label %38

38:                                               ; preds = %37
  br label %39

39:                                               ; preds = %38
  br label %40

40:                                               ; preds = %39
  %41 = load i64, ptr @H5E_HEAP_g, align 8, !tbaa !28
  %42 = load i64, ptr @H5E_CANTCOMPUTE_g, align 8, !tbaa !28
  %43 = call i32 (ptr, ptr, i32, i64, i64, ptr, ...) @H5E_printf_stack(ptr noundef @.str.4, ptr noundef @__func__.H5HF__man_iblock_parent_info, i32 noundef 1755, i64 noundef %41, i64 noundef %42, ptr noundef @.str.48)
  br label %44

44:                                               ; preds = %40
  br label %45

45:                                               ; preds = %44
  store i8 1, ptr %16, align 1, !tbaa !10
  %46 = load i8, ptr %16, align 1, !tbaa !10, !range !12, !noundef !13
  %47 = trunc i8 %46 to i1
  %48 = zext i1 %47 to i8
  store i8 %48, ptr %16, align 1, !tbaa !10
  br label %49

49:                                               ; preds = %45
  br label %50

50:                                               ; preds = %49
  br label %51

51:                                               ; preds = %50
  store i32 -1, ptr %15, align 4, !tbaa !8
  br label %131

52:                                               ; No predecessors!
  br label %53

53:                                               ; preds = %52
  br label %54

54:                                               ; preds = %53
  br label %55

55:                                               ; preds = %54
  br label %56

56:                                               ; preds = %55, %31
  store i64 0, ptr %9, align 8, !tbaa !28
  store i64 0, ptr %10, align 8, !tbaa !28
  br label %57

57:                                               ; preds = %117, %56
  %58 = load i32, ptr %11, align 4, !tbaa !8
  %59 = load ptr, ptr %5, align 8, !tbaa !52
  %60 = getelementptr inbounds nuw %struct.H5HF_hdr_t, ptr %59, i32 0, i32 7
  %61 = getelementptr inbounds nuw %struct.H5HF_dtable_t, ptr %60, i32 0, i32 4
  %62 = load i32, ptr %61, align 8, !tbaa !32
  %63 = icmp uge i32 %58, %62
  br i1 %63, label %64, label %118

64:                                               ; preds = %57
  %65 = load i64, ptr %9, align 8, !tbaa !28
  store i64 %65, ptr %10, align 8, !tbaa !28
  %66 = load ptr, ptr %5, align 8, !tbaa !52
  %67 = getelementptr inbounds nuw %struct.H5HF_hdr_t, ptr %66, i32 0, i32 7
  %68 = getelementptr inbounds nuw %struct.H5HF_dtable_t, ptr %67, i32 0, i32 11
  %69 = load ptr, ptr %68, align 8, !tbaa !75
  %70 = load i32, ptr %11, align 4, !tbaa !8
  %71 = zext i32 %70 to i64
  %72 = getelementptr inbounds nuw i64, ptr %69, i64 %71
  %73 = load i64, ptr %72, align 8, !tbaa !28
  %74 = load i64, ptr %9, align 8, !tbaa !28
  %75 = add i64 %74, %73
  store i64 %75, ptr %9, align 8, !tbaa !28
  %76 = load ptr, ptr %5, align 8, !tbaa !52
  %77 = getelementptr inbounds nuw %struct.H5HF_hdr_t, ptr %76, i32 0, i32 7
  %78 = getelementptr inbounds nuw %struct.H5HF_dtable_t, ptr %77, i32 0, i32 10
  %79 = load ptr, ptr %78, align 8, !tbaa !87
  %80 = load i32, ptr %11, align 4, !tbaa !8
  %81 = zext i32 %80 to i64
  %82 = getelementptr inbounds nuw i64, ptr %79, i64 %81
  %83 = load i64, ptr %82, align 8, !tbaa !28
  %84 = load i32, ptr %12, align 4, !tbaa !8
  %85 = zext i32 %84 to i64
  %86 = mul i64 %83, %85
  %87 = load i64, ptr %9, align 8, !tbaa !28
  %88 = add i64 %87, %86
  store i64 %88, ptr %9, align 8, !tbaa !28
  %89 = load i32, ptr %11, align 4, !tbaa !8
  store i32 %89, ptr %13, align 4, !tbaa !8
  %90 = load i32, ptr %12, align 4, !tbaa !8
  store i32 %90, ptr %14, align 4, !tbaa !8
  %91 = load ptr, ptr %5, align 8, !tbaa !52
  %92 = getelementptr inbounds nuw %struct.H5HF_hdr_t, ptr %91, i32 0, i32 7
  %93 = load i64, ptr %6, align 8, !tbaa !28
  %94 = load i64, ptr %9, align 8, !tbaa !28
  %95 = sub i64 %93, %94
  %96 = call i32 @H5HF__dtable_lookup(ptr noundef %92, i64 noundef %95, ptr noundef %11, ptr noundef %12)
  %97 = icmp slt i32 %96, 0
  br i1 %97, label %98, label %117

98:                                               ; preds = %64
  br label %99

99:                                               ; preds = %98
  br label %100

100:                                              ; preds = %99
  br label %101

101:                                              ; preds = %100
  %102 = load i64, ptr @H5E_HEAP_g, align 8, !tbaa !28
  %103 = load i64, ptr @H5E_CANTCOMPUTE_g, align 8, !tbaa !28
  %104 = call i32 (ptr, ptr, i32, i64, i64, ptr, ...) @H5E_printf_stack(ptr noundef @.str.4, ptr noundef @__func__.H5HF__man_iblock_parent_info, i32 noundef 1779, i64 noundef %102, i64 noundef %103, ptr noundef @.str.48)
  br label %105

105:                                              ; preds = %101
  br label %106

106:                                              ; preds = %105
  store i8 1, ptr %16, align 1, !tbaa !10
  %107 = load i8, ptr %16, align 1, !tbaa !10, !range !12, !noundef !13
  %108 = trunc i8 %107 to i1
  %109 = zext i1 %108 to i8
  store i8 %109, ptr %16, align 1, !tbaa !10
  br label %110

110:                                              ; preds = %106
  br label %111

111:                                              ; preds = %110
  br label %112

112:                                              ; preds = %111
  store i32 -1, ptr %15, align 4, !tbaa !8
  br label %131

113:                                              ; No predecessors!
  br label %114

114:                                              ; preds = %113
  br label %115

115:                                              ; preds = %114
  br label %116

116:                                              ; preds = %115
  br label %117

117:                                              ; preds = %116, %64
  br label %57, !llvm.loop !122

118:                                              ; preds = %57
  %119 = load i64, ptr %10, align 8, !tbaa !28
  %120 = load ptr, ptr %7, align 8, !tbaa !76
  store i64 %119, ptr %120, align 8, !tbaa !28
  %121 = load i32, ptr %13, align 4, !tbaa !8
  %122 = load ptr, ptr %5, align 8, !tbaa !52
  %123 = getelementptr inbounds nuw %struct.H5HF_hdr_t, ptr %122, i32 0, i32 7
  %124 = getelementptr inbounds nuw %struct.H5HF_dtable_t, ptr %123, i32 0, i32 0
  %125 = getelementptr inbounds nuw %struct.H5HF_dtable_cparam_t, ptr %124, i32 0, i32 0
  %126 = load i32, ptr %125, align 8, !tbaa !44
  %127 = mul i32 %121, %126
  %128 = load i32, ptr %14, align 4, !tbaa !8
  %129 = add i32 %127, %128
  %130 = load ptr, ptr %8, align 8, !tbaa !121
  store i32 %129, ptr %130, align 4, !tbaa !8
  br label %131

131:                                              ; preds = %118, %112, %51
  br label %132

132:                                              ; preds = %131, %23
  %133 = load i32, ptr %15, align 4, !tbaa !8
  call void @llvm.lifetime.end.p0(i64 1, ptr %16) #7
  call void @llvm.lifetime.end.p0(i64 4, ptr %15) #7
  call void @llvm.lifetime.end.p0(i64 4, ptr %14) #7
  call void @llvm.lifetime.end.p0(i64 4, ptr %13) #7
  call void @llvm.lifetime.end.p0(i64 4, ptr %12) #7
  call void @llvm.lifetime.end.p0(i64 4, ptr %11) #7
  call void @llvm.lifetime.end.p0(i64 8, ptr %10) #7
  call void @llvm.lifetime.end.p0(i64 8, ptr %9) #7
  ret i32 %133
}