; Function Attrs: nounwind uwtable
define range(i32 -1, 1) i32 @H5HF__man_iblock_parent_info(ptr noundef %0, i64 noundef %1, ptr noundef writeonly captures(none) %2, ptr noundef writeonly captures(none) %3) local_unnamed_addr #0 {
  %5 = alloca i32, align 4
  %6 = alloca i32, align 4
  call void @llvm.lifetime.start.p0(i64 4, ptr nonnull %5) #6
  call void @llvm.lifetime.start.p0(i64 4, ptr nonnull %6) #6
  %7 = load i8, ptr @H5HF_init_g, align 1, !tbaa !3, !range !7, !noundef !8
  %8 = trunc nuw i8 %7 to i1
  %9 = load i8, ptr @H5_libterm_g, align 1, !range !7
  %10 = trunc nuw i8 %9 to i1
  %11 = xor i1 %10, true
  %12 = select i1 %8, i1 true, i1 %11
  br i1 %12, label %13, label %53, !prof !9

13:                                               ; preds = %4
  %14 = getelementptr inbounds nuw i8, ptr %0, i64 264
  %15 = call i32 @H5HF__dtable_lookup(ptr noundef nonnull %14, i64 noundef %1, ptr noundef nonnull %5, ptr noundef nonnull %6) #6
  %16 = icmp slt i32 %15, 0
  br i1 %16, label %22, label %.preheader

.preheader:                                       ; preds = %13
  %17 = getelementptr inbounds nuw i8, ptr %0, i64 312
  %18 = load i32, ptr %5, align 4, !tbaa !54
  %19 = load i32, ptr %17, align 8, !tbaa !30
  %.not27 = icmp ult i32 %18, %19
  br i1 %.not27, label %._crit_edge, label %.lr.ph

.lr.ph:                                           ; preds = %.preheader
  %20 = getelementptr inbounds nuw i8, ptr %0, i64 352
  %21 = getelementptr inbounds nuw i8, ptr %0, i64 344
  br label %29

22:                                               ; preds = %13
  %23 = load i64, ptr @H5E_HEAP_g, align 8, !tbaa !48
  %24 = load i64, ptr @H5E_CANTCOMPUTE_g, align 8, !tbaa !48
  %25 = call i32 (ptr, ptr, i32, i64, i64, ptr, ...) @H5E_printf_stack(ptr noundef nonnull @.str.4, ptr noundef nonnull @__func__.H5HF__man_iblock_parent_info, i32 noundef 1755, i64 noundef %23, i64 noundef %24, ptr noundef nonnull @.str.48) #6
  br label %53

26:                                               ; preds = %29
  %27 = load i32, ptr %5, align 4, !tbaa !54
  %28 = load i32, ptr %17, align 8, !tbaa !30
  %.not = icmp ult i32 %27, %28
  br i1 %.not, label %._crit_edge, label %29, !llvm.loop !116

29:                                               ; preds = %.lr.ph, %26
  %30 = phi i32 [ %18, %.lr.ph ], [ %27, %26 ]
  %.02228 = phi i64 [ 0, %.lr.ph ], [ %42, %26 ]
  %31 = load ptr, ptr %20, align 8, !tbaa !85
  %32 = zext i32 %30 to i64
  %33 = getelementptr inbounds nuw i64, ptr %31, i64 %32
  %34 = load i64, ptr %33, align 8, !tbaa !48
  %35 = add i64 %34, %.02228
  %36 = load ptr, ptr %21, align 8, !tbaa !94
  %37 = getelementptr inbounds nuw i64, ptr %36, i64 %32
  %38 = load i64, ptr %37, align 8, !tbaa !48
  %39 = load i32, ptr %6, align 4, !tbaa !54
  %40 = zext i32 %39 to i64
  %41 = mul i64 %38, %40
  %42 = add i64 %35, %41
  %43 = sub i64 %1, %42
  %44 = call i32 @H5HF__dtable_lookup(ptr noundef nonnull %14, i64 noundef %43, ptr noundef nonnull %5, ptr noundef nonnull %6) #6
  %45 = icmp slt i32 %44, 0
  br i1 %45, label %46, label %26, !llvm.loop !116

46:                                               ; preds = %29
  %47 = load i64, ptr @H5E_HEAP_g, align 8, !tbaa !48
  %48 = load i64, ptr @H5E_CANTCOMPUTE_g, align 8, !tbaa !48
  %49 = call i32 (ptr, ptr, i32, i64, i64, ptr, ...) @H5E_printf_stack(ptr noundef nonnull @.str.4, ptr noundef nonnull @__func__.H5HF__man_iblock_parent_info, i32 noundef 1779, i64 noundef %47, i64 noundef %48, ptr noundef nonnull @.str.48) #6
  br label %53

._crit_edge:                                      ; preds = %26, %.preheader
  %.021.lcssa = phi i64 [ 0, %.preheader ], [ %.02228, %26 ]
  %.020.lcssa = phi i32 [ 0, %.preheader ], [ %30, %26 ]
  %.019.lcssa = phi i32 [ 0, %.preheader ], [ %39, %26 ]
  store i64 %.021.lcssa, ptr %2, align 8, !tbaa !48
  %50 = load i32, ptr %14, align 8, !tbaa !42
  %51 = mul i32 %50, %.020.lcssa
  %52 = add i32 %51, %.019.lcssa
  store i32 %52, ptr %3, align 4, !tbaa !54
  br label %53

53:                                               ; preds = %22, %46, %._crit_edge, %4
  %.0 = phi i32 [ -1, %22 ], [ -1, %46 ], [ 0, %._crit_edge ], [ 0, %4 ]
  call void @llvm.lifetime.end.p0(i64 4, ptr nonnull %6) #6
  call void @llvm.lifetime.end.p0(i64 4, ptr nonnull %5) #6
  ret i32 %.0
}